Certificate:
    Data:
        Version: 3 (0x2)
        Serial Number: 4096 (0x1000)
    Signature Algorithm: sha256WithRSAEncryption
        Issuer: C=US, ST=Some-State, O=Mirantis, CN=Shrimp
        Validity
            Not Before: Oct 31 11:21:50 2016 GMT
            Not After : Mar 18 11:21:50 2044 GMT
        Subject: C=US, ST=Some-State, O=Mirantis, CN=Shrimp
        Subject Public Key Info:
            Public Key Algorithm: rsaEncryption
                Public-Key: (2048 bit)
                Modulus:
                    00:aa:e4:0c:0f:52:85:31:13:d5:b0:a7:4e:bd:2c:
                    9d:c6:f0:a0:36:71:23:ab:0c:3b:1c:a6:a5:ce:8c:
                    9a:54:0d:40:12:79:0c:42:90:5b:4a:d5:50:9d:b0:
                    fd:05:5f:20:84:01:56:a4:67:56:f6:5b:1c:70:20:
                    22:73:b5:19:0d:d0:ae:df:bc:1f:e4:28:85:2b:fd:
                    6b:d8:f0:0a:88:e4:bf:30:0f:b2:fa:e8:6e:50:88:
                    32:62:58:16:b4:b0:7b:15:cf:b5:cc:4a:61:dd:c8:
                    db:28:6b:73:77:02:20:98:07:54:8d:d7:5f:3d:15:
                    a4:7a:24:43:20:3c:c9:3b:f8:05:fb:f4:ed:27:4d:
                    a2:16:eb:02:f3:14:cd:a0:72:73:ef:53:d1:6c:36:
                    1a:ec:92:4d:bf:55:8d:56:b5:7a:0a:0a:9e:7e:5f:
                    49:e1:6e:76:85:81:71:bb:e7:97:de:d9:3c:e0:d2:
                    1b:4c:1b:c1:75:58:37:8b:0e:47:b7:5f:1f:ef:6a:
                    f2:25:1c:e3:7c:75:6f:d2:c8:3e:93:58:50:e4:8f:
                    e0:d8:fe:66:4b:df:d7:26:81:52:86:83:f1:3d:d1:
                    9e:2e:81:4d:8d:b6:46:7f:82:db:f1:15:b7:6f:d3:
                    ad:92:a0:fc:0c:f3:52:aa:5e:89:1c:e9:cf:55:24:
                    fa:4f
                Exponent: 65537 (0x10001)
        X509v3 extensions:
            X509v3 Basic Constraints: 
                CA:FALSE
            Netscape Comment: 
                OpenSSL Generated Certificate
            X509v3 Subject Key Identifier: 
                61:5D:0C:AA:56:0F:10:03:83:D0:91:AC:4B:20:EA:53:80:CE:F8:5F
            X509v3 Authority Key Identifier: 
                keyid:CA:CD:0F:A9:1D:28:AA:CF:84:CD:AF:C8:9A:53:05:B8:C8:3C:44:8E

    Signature Algorithm: sha256WithRSAEncryption
         8b:d4:f2:e8:e9:96:32:f1:f7:22:cb:fe:de:91:e2:1e:e6:b3:
         e9:58:03:7f:cc:8d:f5:b0:ab:56:2e:cd:1a:ff:7f:86:2d:eb:
         6e:a4:7d:69:d4:43:70:8d:66:b1:bc:ea:86:17:0d:40:2b:29:
         4f:8d:59:d1:b3:5e:bd:40:34:6c:61:51:64:c6:bb:5f:44:ac:
         5c:4f:07:19:33:8b:f5:50:2a:17:5d:33:94:8e:85:88:a3:33:
         6a:67:72:1f:7e:aa:e3:b4:91:f5:d4:0c:19:00:5c:57:2b:a5:
         ca:c5:b2:72:06:46:31:8f:88:d4:ee:f8:ea:12:a5:1b:61:65:
         9d:a4:75:c7:f7:67:7d:81:6c:48:4d:68:da:a9:06:d4:48:f5:
         ab:52:2a:64:30:76:70:3e:43:5c:85:01:1d:14:f1:e0:18:32:
         23:80:6f:98:d1:2a:e6:a7:54:4c:e0:aa:31:44:b0:a5:af:86:
         42:e5:57:8a:c1:52:f9:5e:92:77:00:9b:a3:a3:b3:fc:96:0a:
         5d:f9:82:54:8d:a7:8f:a7:86:1e:99:f7:16:7a:67:ef:53:39:
         68:2a:78:9c:f0:f8:38:d8:e4:f6:ac:e8:74:b1:5b:55:e2:e0:
         dc:30:ee:9d:dc:1f:d3:1f:41:c9:09:a5:6e:38:e2:95:bf:f4:
         61:af:a1:b3
-----BEGIN CERTIFICATE-----
MIIDgzCCAmugAwIBAgICEAAwDQYJKoZIhvcNAQELBQAwRjELMAkGA1UEBhMCVVMx
EzARBgNVBAgMClNvbWUtU3RhdGUxETAPBgNVBAoMCE1pcmFudGlzMQ8wDQYDVQQD
DAZTaHJpbXAwHhcNMTYxMDMxMTEyMTUwWhcNNDQwMzE4MTEyMTUwWjBGMQswCQYD
VQQGEwJVUzETMBEGA1UECAwKU29tZS1TdGF0ZTERMA8GA1UECgwITWlyYW50aXMx
DzANBgNVBAMMBlNocmltcDCCASIwDQYJKoZIhvcNAQEBBQADggEPADCCAQoCggEB
AKrkDA9ShTET1bCnTr0sncbwoDZxI6sMOxympc6MmlQNQBJ5DEKQW0rVUJ2w/QVf
IIQBVqRnVvZbHHAgInO1GQ3Qrt+8H+QohSv9a9jwCojkvzAPsvroblCIMmJYFrSw
exXPtcxKYd3I2yhrc3cCIJgHVI3XXz0VpHokQyA8yTv4Bfv07SdNohbrAvMUzaBy
c+9T0Ww2GuySTb9VjVa1egoKnn5fSeFudoWBcbvnl97ZPODSG0wbwXVYN4sOR7df
H+9q8iUc43x1b9LIPpNYUOSP4Nj+Zkvf1yaBUoaD8T3Rni6BTY22Rn+C2/EVt2/T
rZKg/AzzUqpeiRzpz1Uk+k8CAwEAAaN7MHkwCQYDVR0TBAIwADAsBglghkgBhvhC
AQ0EHxYdT3BlblNTTCBHZW5lcmF0ZWQgQ2VydGlmaWNhdGUwHQYDVR0OBBYEFGFd
DKpWDxADg9CRrEsg6lOAzvhfMB8GA1UdIwQYMBaAFMrND6kdKKrPhM2vyJpTBbjI
PESOMA0GCSqGSIb3DQEBCwUAA4IBAQCL1PLo6ZYy8fciy/7ekeIe5rPpWAN/zI31
sKtWLs0a/3+GLetupH1p1ENwjWaxvOqGFw1AKylPjVnRs169QDRsYVFkxrtfRKxc
TwcZM4v1UCoXXTOUjoWIozNqZ3IffqrjtJH11AwZAFxXK6XKxbJyBkYxj4jU7vjq
EqUbYWWdpHXH92d9gWxITWjaqQbUSPWrUipkMHZwPkNchQEdFPHgGDIjgG+Y0Srm
p1RM4KoxRLClr4ZC5VeKwVL5XpJ3AJujo7P8lgpd+YJUjaePp4YemfcWemfvUzlo
Knic8Pg42OT2rOh0sVtV4uDcMO6d3B/TH0HJCaVuOOKVv/Rhr6Gz
-----END CERTIFICATE-----
-----BEGIN PRIVATE KEY-----
MIIEvAIBADANBgkqhkiG9w0BAQEFAASCBKYwggSiAgEAAoIBAQCq5AwPUoUxE9Ww
p069LJ3G8KA2cSOrDDscpqXOjJpUDUASeQxCkFtK1VCdsP0FXyCEAVakZ1b2Wxxw
ICJztRkN0K7fvB/kKIUr/WvY8AqI5L8wD7L66G5QiDJiWBa0sHsVz7XMSmHdyNso
a3N3AiCYB1SN1189FaR6JEMgPMk7+AX79O0nTaIW6wLzFM2gcnPvU9FsNhrskk2/
VY1WtXoKCp5+X0nhbnaFgXG755fe2Tzg0htMG8F1WDeLDke3Xx/vavIlHON8dW/S
yD6TWFDkj+DY/mZL39cmgVKGg/E90Z4ugU2NtkZ/gtvxFbdv062SoPwM81KqXokc
6c9VJPpPAgMBAAECggEANJjJ6XFhkzBipeNoxarUyOVIuljqPHwgOXpFMCRwX4xQ
ex8MmfQqVQcAr/hId/3GWTq8Ow+fYWW7g/sv/2Lu2iSvnicdvbCHBHoUVonTBD07
ZwR99uHRCjJRJ5mrK2PiDl2Gu+Ds7EEkyvT/bdKWy5P9/0YZhwiBPiKpEmQDH9R+
46flYbYhbLsV5Ydu4Qgpgh0HEdILLIZWo3EJBEiuCYl7/eDhvajy8SVWY9D7T+P1
MWbtBCQOz+Zh9Z3XYV9rCUxEBiwYOG4o04TlerfEgXU3yIoNPjDbujgYlRcmKIfI
LOtunObOTfXzLu+lVp2X2H+JVRWTmMvlwyO7aRpU4QKBgQDVZilAbMgcmAPcFqDI
e4kzgTNfSnHMMucr4rgrzCfl8mgwE9teAV9SOvwroPcsZIp3ZG6c5UnIDFjfORqX
NJDPFcGRv8ifZw9vV8JnXLZkvgseoQZNdVeoFdmP/3TzVSL7kIzkKdBcH6Ti3EPW
jZ9ffJAJTzjopRfpuaUJEBng/wKBgQDNAXxQeqoIfH9t0vst5AGgC1rTCIji0+Ux
mh2SaX7dbwV+jhdWfVLEXhzaq3pPrB5NND+sTk/f2ZtGP1lFrxoNrYRM9ae+3fhL
HE9MjRVzQty4ZgQUnxGiOgTkfNUnUAebNX7+98YlZ9JIQ9TOhAWLMc4Q86FNPoiZ
O19+65WWsQKBgArEo/I/Sv2+Yft6HNTg/vRdYaU+UW23Z9jcEOUM4TqGN+GtLtWY
hiHVHiJpde+Eh0QtCjPakhWJIfbpn8Dfgysf8uuS3OHGRo4cxI+Iqx98Q31hLLs9
35V4vMi6YEFjG2fMTH+66GutoRldegLalJ8x3ubJW5rJseI2XvCNInErAoGAVUf7
7gLJPxSDci1lfjaukmSG2OlhAHNDkfnZuXGXbAhmUbpMbRdfWf8Io9LX49LnHBjT
MBu30JhWpsdtnLZ18SCwu88phBYU1zIkruS1+qfi5/bQVb/CdykJpf9kMKFzOJbt
iKWMUT06VgOZwHtdTwVeAuFGxbpw2sW/OS5JoVECgYALLBOFjqmUCSSPk1fhlSJ4
ongN7X1xgm9qrQIEhOI87/dT7Dqaat/Y1x0MIuEgWdksHutRJx3Zg/aFSC/43aBh
xCdqI+8slbd2+7Rd73wdnHg9CiYIat1gK2NH8rjDUBn7UP1e9+a427Ag2qx0J8PL
cfUFwf5Z6+n1YTdoKHz2zw==
-----END PRIVATE KEY-----
